target datalayout = "e-m:e-p270:32:32-p271:32:32-p272:64:64-i64:64-i128:128-f80:128-n8:16:32:64-S128"
target triple = "x86_64-pc-linux-gnu"

; Function Attrs: mustprogress nounwind uwtable
define hidden noundef i32 @_ZN12JvmtiEnvBase27get_thread_or_vthread_stateEP7oopDescP10JavaThread(ptr noundef %0, ptr noundef %1) #1 align 2 {
  %3 = alloca ptr, align 8
  %4 = alloca ptr, align 8
  %5 = alloca i32, align 4
  store ptr %0, ptr %3, align 8
  store ptr %1, ptr %4, align 8
  store i32 0, ptr %5, align 4
  %6 = load ptr, ptr %3, align 8
  %7 = call noundef zeroext i1 @_ZN23java_lang_VirtualThread11is_instanceEP7oopDesc(ptr noundef %6)
  br i1 %7, label %8, label %12

8:                                                ; preds = %2
  %9 = load ptr, ptr %3, align 8
  %10 = load ptr, ptr %4, align 8
  %11 = call noundef i32 @_ZN12JvmtiEnvBase17get_vthread_stateEP7oopDescP10JavaThread(ptr noundef %9, ptr noundef %10)
  store i32 %11, ptr %5, align 4
  br label %16

12:                                               ; preds = %2
  %13 = load ptr, ptr %3, align 8
  %14 = load ptr, ptr %4, align 8
  %15 = call noundef i32 @_ZN12JvmtiEnvBase16get_thread_stateEP7oopDescP10JavaThread(ptr noundef %13, ptr noundef %14)
  store i32 %15, ptr %5, align 4
  br label %16

16:                                               ; preds = %12, %8
  %17 = load i32, ptr %5, align 4
  ret i32 %17
}