; Function Attrs: mustprogress nounwind uwtable
define hidden noundef i32 @_ZN12JvmtiEnvBase27get_thread_or_vthread_stateEP7oopDescP10JavaThread(ptr noundef %0, ptr noundef %1) local_unnamed_addr #0 align 2 {
  %3 = tail call noundef zeroext i1 @_ZN23java_lang_VirtualThread11is_instanceEP7oopDesc(ptr noundef %0) #18
  br i1 %3, label %4, label %6

4:                                                ; preds = %2
  %5 = tail call noundef i32 @_ZN12JvmtiEnvBase17get_vthread_stateEP7oopDescP10JavaThread(ptr noundef %0, ptr noundef %1)
  br label %8

6:                                                ; preds = %2
  %7 = tail call noundef i32 @_ZN12JvmtiEnvBase16get_thread_stateEP7oopDescP10JavaThread(ptr noundef %0, ptr noundef %1)
  br label %8

8:                                                ; preds = %6, %4
  %.0 = phi i32 [ %5, %4 ], [ %7, %6 ]
  ret i32 %.0
}